target datalayout = "e-m:e-p270:32:32-p271:32:32-p272:64:64-i64:64-i128:128-f80:128-n8:16:32:64-S128"
target triple = "x86_64-pc-linux-gnu"

%struct._value_string = type { i32, ptr }
%struct.expert_field = type { i32, i32 }
%struct._packet_info = type { ptr, ptr, i32, i32, %struct.nstime_t, %struct.nstime_t, %struct.nstime_t, i8, ptr, ptr, ptr, ptr, %struct._address, %struct._address, %struct._address, %struct._address, %struct._address, %struct._address, i32, ptr, i8, [3 x i8], %struct.anon, i32, i32, i32, i32, ptr, i8, ptr, ptr, i16, i16, i32, i32, i16, i32, i32, ptr, ptr, ptr, i8, i8, i16, i16, i16, i32, i16, i16, ptr, ptr, ptr, ptr, ptr, i32, i32 }
%struct.nstime_t = type { i64, i32 }
%struct._address = type { i32, i32, ptr, ptr }
%struct.anon = type { i8, [3 x i8] }
%struct.ncp_req_hash_value = type { ptr, ptr, i32, %struct.nstime_t, i16, i32, i32, i8, i8, [256 x i8], i8, i32, i32, i16, i16, i32 }

@.str = private unnamed_addr constant [5 x i8] c"NSSS\00", align 1
@.str.2 = private unnamed_addr constant [13 x i8] c"Unknown (%d)\00", align 1
@ett_sss = internal global i32 0, align 4
@hf_sss_flags = internal global i32 0, align 4
@hf_sss_frag_handle = internal global i32 0, align 4
@hf_sss_length = internal global i32 0, align 4
@sss_verb_enum = external constant [0 x %struct._value_string], align 8
@hf_sss_verb = internal global i32 0, align 4
@hf_sss_secret = internal global i32 0, align 4
@hf_sss_enc_data = internal global i32 0, align 4
@.str.6 = private unnamed_addr constant [13 x i8] c"Function: %s\00", align 1
@.str.7 = private unnamed_addr constant [8 x i8] c"Unknown\00", align 1
@hf_sss_sss_version = internal global i32 0, align 4
@hf_sss_return_code = internal global i32 0, align 4
@ei_return_code = internal global %struct.expert_field zeroinitializer, align 4
@.str.8 = private unnamed_addr constant [14 x i8] c"SSS Error: %s\00", align 1
@.str.9 = private unnamed_addr constant [13 x i8] c"R Error - %s\00", align 1
@.str.10 = private unnamed_addr constant [21 x i8] c"Success (0x00000000)\00", align 1

; Function Attrs: null_pointer_is_valid sspstrong uwtable
define internal i32 @find_delimiter(ptr noundef %0, i32 noundef %1) #0 {
  %3 = alloca i32, align 4
  %4 = alloca ptr, align 8
  %5 = alloca i32, align 4
  %6 = alloca i32, align 4
  %7 = alloca i32, align 4
  store ptr %0, ptr %4, align 8
  store i32 %1, ptr %5, align 4
  call void @llvm.lifetime.start.p0(i64 4, ptr %6) #3
  %8 = load ptr, ptr %4, align 8
  %9 = load i32, ptr %5, align 4
  %10 = call i32 @tvb_find_uint8(ptr noundef %8, i32 noundef %9, i32 noundef 256, i8 noundef zeroext 42)
  store i32 %10, ptr %6, align 4
  %11 = load i32, ptr %6, align 4
  %12 = load i32, ptr %5, align 4
  %13 = icmp sge i32 %11, %12
  br i1 %13, label %14, label %18

14:                                               ; preds = %2
  %15 = load i32, ptr %6, align 4
  %16 = load i32, ptr %5, align 4
  %17 = sub i32 %15, %16
  store i32 %17, ptr %3, align 4
  store i32 1, ptr %7, align 4
  br label %19

18:                                               ; preds = %2
  store i32 0, ptr %3, align 4
  store i32 1, ptr %7, align 4
  br label %19

19:                                               ; preds = %18, %14
  call void @llvm.lifetime.end.p0(i64 4, ptr %6) #3
  %20 = load i32, ptr %3, align 4
  ret i32 %20
}

; Function Attrs: null_pointer_is_valid sspstrong uwtable
define hidden void @dissect_sss_reply(ptr noundef %0, ptr noundef %1, ptr noundef %2, i8 noundef zeroext %3, ptr noundef %4) #0 {
  %6 = alloca ptr, align 8
  %7 = alloca ptr, align 8
  %8 = alloca ptr, align 8
  %9 = alloca i8, align 1
  %10 = alloca ptr, align 8
  %11 = alloca i32, align 4
  %12 = alloca i32, align 4
  %13 = alloca i32, align 4
  %14 = alloca i32, align 4
  %15 = alloca i32, align 4
  %16 = alloca i32, align 4
  %17 = alloca i32, align 4
  %18 = alloca ptr, align 8
  %19 = alloca ptr, align 8
  %20 = alloca ptr, align 8
  %21 = alloca i32, align 4
  store ptr %0, ptr %6, align 8
  store ptr %1, ptr %7, align 8
  store ptr %2, ptr %8, align 8
  store i8 %3, ptr %9, align 1
  store ptr %4, ptr %10, align 8
  call void @llvm.lifetime.start.p0(i64 4, ptr %11) #3
  store i32 0, ptr %11, align 4
  call void @llvm.lifetime.start.p0(i64 4, ptr %12) #3
  store i32 0, ptr %12, align 4
  call void @llvm.lifetime.start.p0(i64 4, ptr %13) #3
  store i32 0, ptr %13, align 4
  call void @llvm.lifetime.start.p0(i64 4, ptr %14) #3
  store i32 0, ptr %14, align 4
  call void @llvm.lifetime.start.p0(i64 4, ptr %15) #3
  store i32 0, ptr %15, align 4
  call void @llvm.lifetime.start.p0(i64 4, ptr %16) #3
  store i32 0, ptr %16, align 4
  call void @llvm.lifetime.start.p0(i64 4, ptr %17) #3
  store i32 0, ptr %17, align 4
  call void @llvm.lifetime.start.p0(i64 8, ptr %18) #3
  call void @llvm.lifetime.start.p0(i64 8, ptr %19) #3
  call void @llvm.lifetime.start.p0(i64 8, ptr %20) #3
  store i32 8, ptr %11, align 4
  %22 = load ptr, ptr %7, align 8
  %23 = getelementptr inbounds nuw %struct._packet_info, ptr %22, i32 0, i32 1
  %24 = load ptr, ptr %23, align 8
  call void @col_set_str(ptr noundef %24, i32 noundef 35, ptr noundef @.str)
  %25 = load ptr, ptr %6, align 8
  %26 = load i32, ptr %11, align 4
  %27 = call i32 @tvb_captured_length_remaining(ptr noundef %25, i32 noundef %26)
  %28 = icmp slt i32 %27, 4
  br i1 %28, label %29, label %30

29:                                               ; preds = %5
  store i32 1, ptr %21, align 4
  br label %222

30:                                               ; preds = %5
  %31 = load ptr, ptr %8, align 8
  %32 = load ptr, ptr %6, align 8
  %33 = load i32, ptr %11, align 4
  %34 = load i32, ptr @ett_sss, align 4
  %35 = load i8, ptr %9, align 1
  %36 = zext i8 %35 to i32
  %37 = call ptr @val_to_str_const(i32 noundef %36, ptr noundef @sss_func_enum, ptr noundef @.str.7)
  %38 = call ptr (ptr, ptr, i32, i32, i32, ptr, ptr, ...) @proto_tree_add_subtree_format(ptr noundef %31, ptr noundef %32, i32 noundef %33, i32 noundef -1, i32 noundef %34, ptr noundef null, ptr noundef @.str.6, ptr noundef %37)
  store ptr %38, ptr %19, align 8
  %39 = load i8, ptr %9, align 1
  %40 = zext i8 %39 to i32
  switch i32 %40, label %220 [
    i32 1, label %41
    i32 2, label %54
    i32 3, label %221
  ]

41:                                               ; preds = %30
  %42 = load ptr, ptr %19, align 8
  %43 = load i32, ptr @hf_sss_flags, align 4
  %44 = load ptr, ptr %6, align 8
  %45 = load i32, ptr %11, align 4
  %46 = call ptr @proto_tree_add_item(ptr noundef %42, i32 noundef %43, ptr noundef %44, i32 noundef %45, i32 noundef 4, i32 noundef -2147483648)
  %47 = load i32, ptr %11, align 4
  %48 = add i32 %47, 4
  store i32 %48, ptr %11, align 4
  %49 = load ptr, ptr %19, align 8
  %50 = load i32, ptr @hf_sss_sss_version, align 4
  %51 = load ptr, ptr %6, align 8
  %52 = load i32, ptr %11, align 4
  %53 = call ptr @proto_tree_add_item(ptr noundef %49, i32 noundef %50, ptr noundef %51, i32 noundef %52, i32 noundef 4, i32 noundef -2147483648)
  br label %221

54:                                               ; preds = %30
  %55 = load ptr, ptr %10, align 8
  %56 = icmp ne ptr %55, null
  br i1 %56, label %57, label %73

57:                                               ; preds = %54
  %58 = load ptr, ptr %10, align 8
  %59 = getelementptr inbounds nuw %struct.ncp_req_hash_value, ptr %58, i32 0, i32 5
  %60 = load i32, ptr %59, align 4
  store i32 %60, ptr %12, align 4
  %61 = load i32, ptr %12, align 4
  %62 = call ptr @try_val_to_str(i32 noundef %61, ptr noundef @sss_verb_enum)
  store ptr %62, ptr %18, align 8
  %63 = load ptr, ptr %18, align 8
  %64 = icmp ne ptr %63, null
  br i1 %64, label %65, label %72

65:                                               ; preds = %57
  %66 = load ptr, ptr %19, align 8
  %67 = load i32, ptr @hf_sss_verb, align 4
  %68 = load ptr, ptr %6, align 8
  %69 = load i32, ptr %11, align 4
  %70 = load i32, ptr %12, align 4
  %71 = call ptr @proto_tree_add_uint(ptr noundef %66, i32 noundef %67, ptr noundef %68, i32 noundef %69, i32 noundef -1, i32 noundef %70)
  br label %72

72:                                               ; preds = %65, %57
  br label %73

73:                                               ; preds = %72, %54
  %74 = load ptr, ptr %19, align 8
  %75 = load i32, ptr @hf_sss_length, align 4
  %76 = load ptr, ptr %6, align 8
  %77 = load i32, ptr %11, align 4
  %78 = call ptr @proto_tree_add_item(ptr noundef %74, i32 noundef %75, ptr noundef %76, i32 noundef %77, i32 noundef 4, i32 noundef -2147483648)
  %79 = load ptr, ptr %6, align 8
  %80 = load i32, ptr %11, align 4
  %81 = call i32 @tvb_get_letohl(ptr noundef %79, i32 noundef %80)
  store i32 %81, ptr %13, align 4
  %82 = load i32, ptr %11, align 4
  %83 = add i32 %82, 4
  store i32 %83, ptr %11, align 4
  %84 = load ptr, ptr %19, align 8
  %85 = load i32, ptr @hf_sss_frag_handle, align 4
  %86 = load ptr, ptr %6, align 8
  %87 = load i32, ptr %11, align 4
  %88 = call ptr @proto_tree_add_item(ptr noundef %84, i32 noundef %85, ptr noundef %86, i32 noundef %87, i32 noundef 4, i32 noundef -2147483648)
  %89 = load i32, ptr %11, align 4
  %90 = add i32 %89, 4
  store i32 %90, ptr %11, align 4
  %91 = load i32, ptr %13, align 4
  %92 = sub i32 %91, 4
  store i32 %92, ptr %13, align 4
  %93 = load ptr, ptr %6, align 8
  %94 = load i32, ptr %11, align 4
  %95 = sub i32 %94, 4
  %96 = call i32 @tvb_get_letohl(ptr noundef %93, i32 noundef %95)
  %97 = icmp eq i32 %96, -1
  br i1 %97, label %98, label %197

98:                                               ; preds = %73
  %99 = load i32, ptr %13, align 4
  %100 = icmp ugt i32 %99, 4
  br i1 %100, label %101, label %197

101:                                              ; preds = %98
  %102 = load i32, ptr %11, align 4
  %103 = add i32 %102, 4
  store i32 %103, ptr %11, align 4
  %104 = load ptr, ptr %6, align 8
  %105 = load i32, ptr %11, align 4
  %106 = call i32 @tvb_get_letohl(ptr noundef %104, i32 noundef %105)
  store i32 %106, ptr %14, align 4
  %107 = load i32, ptr %14, align 4
  %108 = call ptr @try_val_to_str(i32 noundef %107, ptr noundef @sss_errors_enum)
  store ptr %108, ptr %18, align 8
  %109 = load ptr, ptr %18, align 8
  %110 = icmp ne ptr %109, null
  br i1 %110, label %111, label %126

111:                                              ; preds = %101
  %112 = load ptr, ptr %19, align 8
  %113 = load i32, ptr @hf_sss_return_code, align 4
  %114 = load ptr, ptr %6, align 8
  %115 = load i32, ptr %11, align 4
  %116 = call ptr @proto_tree_add_item(ptr noundef %112, i32 noundef %113, ptr noundef %114, i32 noundef %115, i32 noundef 4, i32 noundef -2147483648)
  store ptr %116, ptr %20, align 8
  %117 = load ptr, ptr %7, align 8
  %118 = load ptr, ptr %20, align 8
  %119 = load ptr, ptr %18, align 8
  %120 = call ptr (ptr, ptr, ptr, ptr, ...) @expert_add_info_format(ptr noundef %117, ptr noundef %118, ptr noundef @ei_return_code, ptr noundef @.str.8, ptr noundef %119)
  %121 = load ptr, ptr %7, align 8
  %122 = getelementptr inbounds nuw %struct._packet_info, ptr %121, i32 0, i32 1
  %123 = load ptr, ptr %122, align 8
  %124 = load i32, ptr %14, align 4
  %125 = call ptr @val_to_str(i32 noundef %124, ptr noundef @sss_errors_enum, ptr noundef @.str.2)
  call void (ptr, i32, ptr, ...) @col_add_fstr(ptr noundef %123, i32 noundef 25, ptr noundef @.str.9, ptr noundef %125)
  br label %196

126:                                              ; preds = %101
  %127 = load ptr, ptr %19, align 8
  %128 = load i32, ptr @hf_sss_return_code, align 4
  %129 = load ptr, ptr %6, align 8
  %130 = load i32, ptr %11, align 4
  %131 = call ptr (ptr, i32, ptr, i32, i32, i32, ptr, ...) @proto_tree_add_uint_format_value(ptr noundef %127, i32 noundef %128, ptr noundef %129, i32 noundef %130, i32 noundef 4, i32 noundef 0, ptr noundef @.str.10)
  %132 = load ptr, ptr %6, align 8
  %133 = load i32, ptr %11, align 4
  %134 = call i32 @tvb_reported_length_remaining(ptr noundef %132, i32 noundef %133)
  %135 = icmp sgt i32 %134, 8
  br i1 %135, label %136, label %195

136:                                              ; preds = %126
  %137 = load i32, ptr %11, align 4
  %138 = add i32 %137, 4
  store i32 %138, ptr %11, align 4
  %139 = load ptr, ptr %10, align 8
  %140 = icmp ne ptr %139, null
  br i1 %140, label %141, label %185

141:                                              ; preds = %136
  %142 = load i32, ptr %12, align 4
  %143 = icmp eq i32 %142, 6
  br i1 %143, label %144, label %185

144:                                              ; preds = %141
  %145 = load i32, ptr %11, align 4
  %146 = add i32 %145, 4
  store i32 %146, ptr %11, align 4
  %147 = load ptr, ptr %6, align 8
  %148 = load i32, ptr %11, align 4
  %149 = call i32 @tvb_get_letohl(ptr noundef %147, i32 noundef %148)
  store i32 %149, ptr %15, align 4
  %150 = load i32, ptr %11, align 4
  %151 = add i32 %150, 8
  store i32 %151, ptr %11, align 4
  store i32 0, ptr %17, align 4
  br label %152

152:                                              ; preds = %181, %144
  %153 = load i32, ptr %17, align 4
  %154 = load i32, ptr %15, align 4
  %155 = icmp ult i32 %153, %154
  br i1 %155, label %156, label %184

156:                                              ; preds = %152
  %157 = load ptr, ptr %6, align 8
  %158 = load i32, ptr %11, align 4
  %159 = call i32 @find_delimiter(ptr noundef %157, i32 noundef %158)
  store i32 %159, ptr %16, align 4
  %160 = load i32, ptr %16, align 4
  %161 = load ptr, ptr %6, align 8
  %162 = load i32, ptr %11, align 4
  %163 = call i32 @tvb_reported_length_remaining(ptr noundef %161, i32 noundef %162)
  %164 = icmp sgt i32 %160, %163
  br i1 %164, label %165, label %166

165:                                              ; preds = %156
  store i32 1, ptr %21, align 4
  br label %222

166:                                              ; preds = %156
  %167 = load ptr, ptr %6, align 8
  %168 = load i32, ptr @hf_sss_secret, align 4
  %169 = load ptr, ptr %19, align 8
  %170 = load i32, ptr %11, align 4
  %171 = load i32, ptr %16, align 4
  %172 = call i32 @sss_string(ptr noundef %167, i32 noundef %168, ptr noundef %169, i32 noundef %170, i1 noundef zeroext true, i32 noundef %171)
  store i32 %172, ptr %11, align 4
  %173 = load ptr, ptr %6, align 8
  %174 = load i32, ptr %11, align 4
  %175 = call i32 @tvb_reported_length_remaining(ptr noundef %173, i32 noundef %174)
  %176 = icmp slt i32 %175, 8
  br i1 %176, label %177, label %178

177:                                              ; preds = %166
  store i32 1, ptr %21, align 4
  br label %222

178:                                              ; preds = %166
  %179 = load i32, ptr %11, align 4
  %180 = add i32 %179, 1
  store i32 %180, ptr %11, align 4
  br label %181

181:                                              ; preds = %178
  %182 = load i32, ptr %17, align 4
  %183 = add i32 %182, 1
  store i32 %183, ptr %17, align 4
  br label %152, !llvm.loop !12

184:                                              ; preds = %152
  br label %194

185:                                              ; preds = %141, %136
  %186 = load ptr, ptr %19, align 8
  %187 = load i32, ptr @hf_sss_enc_data, align 4
  %188 = load ptr, ptr %6, align 8
  %189 = load i32, ptr %11, align 4
  %190 = load ptr, ptr %6, align 8
  %191 = load i32, ptr %11, align 4
  %192 = call i32 @tvb_captured_length_remaining(ptr noundef %190, i32 noundef %191)
  %193 = call ptr @proto_tree_add_item(ptr noundef %186, i32 noundef %187, ptr noundef %188, i32 noundef %189, i32 noundef %192, i32 noundef 0)
  br label %194

194:                                              ; preds = %185, %184
  br label %195

195:                                              ; preds = %194, %126
  br label %196

196:                                              ; preds = %195, %111
  br label %219

197:                                              ; preds = %98, %73
  %198 = load ptr, ptr %19, align 8
  %199 = load i32, ptr @hf_sss_return_code, align 4
  %200 = load ptr, ptr %6, align 8
  %201 = load i32, ptr %11, align 4
  %202 = call ptr (ptr, i32, ptr, i32, i32, i32, ptr, ...) @proto_tree_add_uint_format_value(ptr noundef %198, i32 noundef %199, ptr noundef %200, i32 noundef %201, i32 noundef 4, i32 noundef 0, ptr noundef @.str.10)
  %203 = load ptr, ptr %6, align 8
  %204 = load i32, ptr %11, align 4
  %205 = call i32 @tvb_reported_length_remaining(ptr noundef %203, i32 noundef %204)
  %206 = icmp sgt i32 %205, 8
  br i1 %206, label %207, label %218

207:                                              ; preds = %197
  %208 = load i32, ptr %11, align 4
  %209 = add i32 %208, 4
  store i32 %209, ptr %11, align 4
  %210 = load ptr, ptr %19, align 8
  %211 = load i32, ptr @hf_sss_enc_data, align 4
  %212 = load ptr, ptr %6, align 8
  %213 = load i32, ptr %11, align 4
  %214 = load ptr, ptr %6, align 8
  %215 = load i32, ptr %11, align 4
  %216 = call i32 @tvb_captured_length_remaining(ptr noundef %214, i32 noundef %215)
  %217 = call ptr @proto_tree_add_item(ptr noundef %210, i32 noundef %211, ptr noundef %212, i32 noundef %213, i32 noundef %216, i32 noundef 0)
  br label %218

218:                                              ; preds = %207, %197
  br label %219

219:                                              ; preds = %218, %196
  br label %221

220:                                              ; preds = %30
  br label %221

221:                                              ; preds = %220, %30, %219, %41
  store i32 0, ptr %21, align 4
  br label %222

222:                                              ; preds = %221, %177, %165, %29
  call void @llvm.lifetime.end.p0(i64 8, ptr %20) #3
  call void @llvm.lifetime.end.p0(i64 8, ptr %19) #3
  call void @llvm.lifetime.end.p0(i64 8, ptr %18) #3
  call void @llvm.lifetime.end.p0(i64 4, ptr %17) #3
  call void @llvm.lifetime.end.p0(i64 4, ptr %16) #3
  call void @llvm.lifetime.end.p0(i64 4, ptr %15) #3
  call void @llvm.lifetime.end.p0(i64 4, ptr %14) #3
  call void @llvm.lifetime.end.p0(i64 4, ptr %13) #3
  call void @llvm.lifetime.end.p0(i64 4, ptr %12) #3
  call void @llvm.lifetime.end.p0(i64 4, ptr %11) #3
  %223 = load i32, ptr %21, align 4
  switch i32 %223, label %225 [
    i32 0, label %224
    i32 1, label %224
  ]

224:                                              ; preds = %222, %222
  ret void

225:                                              ; preds = %222
  unreachable
}