; Function Attrs: null_pointer_is_valid sspstrong uwtable
define hidden void @dissect_sss_reply(ptr noundef %0, ptr noundef %1, ptr noundef %2, i8 noundef zeroext %3, ptr noundef readonly captures(address_is_null) %4) local_unnamed_addr #0 {
  %6 = getelementptr inbounds nuw i8, ptr %1, i64 8
  %7 = load ptr, ptr %6, align 8
  tail call void @col_set_str(ptr noundef %7, i32 noundef 35, ptr noundef nonnull @.str)
  %8 = tail call i32 @tvb_captured_length_remaining(ptr noundef %0, i32 noundef 8)
  %9 = icmp slt i32 %8, 4
  br i1 %9, label %.loopexit, label %10

10:                                               ; preds = %5
  %11 = load i32, ptr @ett_sss, align 4
  %12 = zext i8 %3 to i32
  %13 = tail call ptr @val_to_str_const(i32 noundef %12, ptr noundef nonnull @sss_func_enum, ptr noundef nonnull @.str.7)
  %14 = tail call ptr (ptr, ptr, i32, i32, i32, ptr, ptr, ...) @proto_tree_add_subtree_format(ptr noundef %2, ptr noundef %0, i32 noundef 8, i32 noundef -1, i32 noundef %11, ptr noundef null, ptr noundef nonnull @.str.6, ptr noundef %13)
  switch i8 %3, label %.loopexit [
    i8 1, label %15
    i8 2, label %20
  ]

15:                                               ; preds = %10
  %16 = load i32, ptr @hf_sss_flags, align 4
  %17 = tail call ptr @proto_tree_add_item(ptr noundef %14, i32 noundef %16, ptr noundef %0, i32 noundef 8, i32 noundef 4, i32 noundef -2147483648)
  %18 = load i32, ptr @hf_sss_sss_version, align 4
  %19 = tail call ptr @proto_tree_add_item(ptr noundef %14, i32 noundef %18, ptr noundef %0, i32 noundef 12, i32 noundef 4, i32 noundef -2147483648)
  br label %.loopexit

20:                                               ; preds = %10
  %21 = icmp ne ptr %4, null
  br i1 %21, label %22, label %29

22:                                               ; preds = %20
  %23 = getelementptr inbounds nuw i8, ptr %4, i64 44
  %24 = load i32, ptr %23, align 4
  %25 = tail call ptr @try_val_to_str(i32 noundef %24, ptr noundef nonnull @sss_verb_enum)
  %.not = icmp eq ptr %25, null
  br i1 %.not, label %29, label %26

26:                                               ; preds = %22
  %27 = load i32, ptr @hf_sss_verb, align 4
  %28 = tail call ptr @proto_tree_add_uint(ptr noundef %14, i32 noundef %27, ptr noundef %0, i32 noundef 8, i32 noundef -1, i32 noundef %24)
  br label %29

29:                                               ; preds = %22, %26, %20
  %.095 = phi i32 [ %24, %26 ], [ %24, %22 ], [ 0, %20 ]
  %30 = load i32, ptr @hf_sss_length, align 4
  %31 = tail call ptr @proto_tree_add_item(ptr noundef %14, i32 noundef %30, ptr noundef %0, i32 noundef 8, i32 noundef 4, i32 noundef -2147483648)
  %32 = tail call i32 @tvb_get_letohl(ptr noundef %0, i32 noundef 8)
  %33 = load i32, ptr @hf_sss_frag_handle, align 4
  %34 = tail call ptr @proto_tree_add_item(ptr noundef %14, i32 noundef %33, ptr noundef %0, i32 noundef 12, i32 noundef 4, i32 noundef -2147483648)
  %35 = tail call i32 @tvb_get_letohl(ptr noundef %0, i32 noundef 12)
  %36 = icmp eq i32 %35, -1
  %37 = add i32 %32, -9
  %38 = icmp ult i32 %37, -5
  %or.cond = select i1 %36, i1 %38, i1 false
  br i1 %or.cond, label %39, label %72

39:                                               ; preds = %29
  %40 = tail call i32 @tvb_get_letohl(ptr noundef %0, i32 noundef 20)
  %41 = tail call ptr @try_val_to_str(i32 noundef %40, ptr noundef nonnull @sss_errors_enum)
  %.not100 = icmp eq ptr %41, null
  %42 = load i32, ptr @hf_sss_return_code, align 4
  br i1 %.not100, label %48, label %43

43:                                               ; preds = %39
  %44 = tail call ptr @proto_tree_add_item(ptr noundef %14, i32 noundef %42, ptr noundef %0, i32 noundef 20, i32 noundef 4, i32 noundef -2147483648)
  %45 = tail call ptr (ptr, ptr, ptr, ptr, ...) @expert_add_info_format(ptr noundef %1, ptr noundef %44, ptr noundef nonnull @ei_return_code, ptr noundef nonnull @.str.8, ptr noundef nonnull %41)
  %46 = load ptr, ptr %6, align 8
  %47 = tail call ptr @val_to_str(i32 noundef %40, ptr noundef nonnull @sss_errors_enum, ptr noundef nonnull @.str.2)
  tail call void (ptr, i32, ptr, ...) @col_add_fstr(ptr noundef %46, i32 noundef 25, ptr noundef nonnull @.str.9, ptr noundef %47)
  br label %.loopexit

48:                                               ; preds = %39
  %49 = tail call ptr (ptr, i32, ptr, i32, i32, i32, ptr, ...) @proto_tree_add_uint_format_value(ptr noundef %14, i32 noundef %42, ptr noundef %0, i32 noundef 20, i32 noundef 4, i32 noundef 0, ptr noundef nonnull @.str.10)
  %50 = tail call i32 @tvb_reported_length_remaining(ptr noundef %0, i32 noundef 20)
  %51 = icmp sgt i32 %50, 8
  br i1 %51, label %52, label %.loopexit

52:                                               ; preds = %48
  %53 = icmp eq i32 %.095, 6
  %or.cond3 = and i1 %21, %53
  br i1 %or.cond3, label %54, label %68

54:                                               ; preds = %52
  %55 = tail call i32 @tvb_get_letohl(ptr noundef %0, i32 noundef 28)
  %.not105 = icmp eq i32 %55, 0
  br i1 %.not105, label %.loopexit, label %.lr.ph

.lr.ph:                                           ; preds = %54, %65
  %.0102 = phi i32 [ %66, %65 ], [ 36, %54 ]
  %.096101 = phi i32 [ %67, %65 ], [ 0, %54 ]
  %56 = tail call i32 @tvb_find_uint8(ptr noundef %0, i32 noundef %.0102, i32 noundef 256, i8 noundef zeroext 42)
  %.not.i = icmp slt i32 %56, %.0102
  %57 = sub i32 %56, %.0102
  %.0.i = select i1 %.not.i, i32 0, i32 %57
  %58 = tail call i32 @tvb_reported_length_remaining(ptr noundef %0, i32 noundef %.0102)
  %59 = icmp sgt i32 %.0.i, %58
  br i1 %59, label %.loopexit, label %60

60:                                               ; preds = %.lr.ph
  %61 = load i32, ptr @hf_sss_secret, align 4
  %62 = tail call fastcc i32 @sss_string(ptr noundef %0, i32 noundef %61, ptr noundef %14, i32 noundef %.0102, i32 noundef %.0.i)
  %63 = tail call i32 @tvb_reported_length_remaining(ptr noundef %0, i32 noundef %62)
  %64 = icmp slt i32 %63, 8
  br i1 %64, label %.loopexit, label %65

65:                                               ; preds = %60
  %66 = add i32 %62, 1
  %67 = add nuw i32 %.096101, 1
  %exitcond.not = icmp eq i32 %67, %55
  br i1 %exitcond.not, label %.loopexit, label %.lr.ph, !llvm.loop !10

68:                                               ; preds = %52
  %69 = load i32, ptr @hf_sss_enc_data, align 4
  %70 = tail call i32 @tvb_captured_length_remaining(ptr noundef %0, i32 noundef 24)
  %71 = tail call ptr @proto_tree_add_item(ptr noundef %14, i32 noundef %69, ptr noundef %0, i32 noundef 24, i32 noundef %70, i32 noundef 0)
  br label %.loopexit

72:                                               ; preds = %29
  %73 = load i32, ptr @hf_sss_return_code, align 4
  %74 = tail call ptr (ptr, i32, ptr, i32, i32, i32, ptr, ...) @proto_tree_add_uint_format_value(ptr noundef %14, i32 noundef %73, ptr noundef %0, i32 noundef 16, i32 noundef 4, i32 noundef 0, ptr noundef nonnull @.str.10)
  %75 = tail call i32 @tvb_reported_length_remaining(ptr noundef %0, i32 noundef 16)
  %76 = icmp sgt i32 %75, 8
  br i1 %76, label %77, label %.loopexit

77:                                               ; preds = %72
  %78 = load i32, ptr @hf_sss_enc_data, align 4
  %79 = tail call i32 @tvb_captured_length_remaining(ptr noundef %0, i32 noundef 20)
  %80 = tail call ptr @proto_tree_add_item(ptr noundef %14, i32 noundef %78, ptr noundef %0, i32 noundef 20, i32 noundef %79, i32 noundef 0)
  br label %.loopexit

.loopexit:                                        ; preds = %.lr.ph, %60, %65, %54, %15, %72, %77, %43, %68, %48, %10, %5
  ret void
}